; Function Attrs: mustprogress uwtable
define hidden noundef ptr @_Z13mk_nnf_tacticR11ast_managerRK10params_ref(ptr nocapture noundef nonnull readnone align 8 dereferenceable(976) %m, ptr noundef nonnull align 8 dereferenceable(8) %p) local_unnamed_addr #3 personality ptr @__gxx_personality_v0 {
entry:
  %new_p = alloca %class.params_ref, align 8
  %ref.tmp = alloca %class.symbol, align 8
  call void @_ZN10params_refC1ERKS_(ptr noundef nonnull align 8 dereferenceable(8) %new_p, ptr noundef nonnull align 8 dereferenceable(8) %p)
  invoke void @_ZN6symbolC1EPKc(ptr noundef nonnull align 8 dereferenceable(8) %ref.tmp, ptr noundef nonnull @.str.1)
          to label %invoke.cont unwind label %lpad

invoke.cont:                                      ; preds = %entry
  invoke void @_ZN10params_ref7set_symEPKcRK6symbol(ptr noundef nonnull align 8 dereferenceable(8) %new_p, ptr noundef nonnull @.str, ptr noundef nonnull align 8 dereferenceable(8) %ref.tmp)
          to label %invoke.cont1 unwind label %lpad

invoke.cont1:                                     ; preds = %invoke.cont
  %call.i2 = invoke noalias noundef ptr @_ZN6memory8allocateEm(i64 noundef 32)
          to label %call.i.noexc unwind label %lpad

call.i.noexc:                                     ; preds = %invoke.cont1
  %m_ref_count.i.i.i = getelementptr inbounds i8, ptr %call.i2, i64 8
  store i32 0, ptr %m_ref_count.i.i.i, align 8
  store ptr getelementptr inbounds ({ [25 x ptr] }, ptr @_ZTV10nnf_tactic, i64 0, i32 0, i64 2), ptr %call.i2, align 8
  %m_params.i.i = getelementptr inbounds i8, ptr %call.i2, i64 16
  invoke void @_ZN10params_refC1ERKS_(ptr noundef nonnull align 8 dereferenceable(8) %m_params.i.i, ptr noundef nonnull align 8 dereferenceable(8) %p)
          to label %invoke.cont2 unwind label %lpad

invoke.cont2:                                     ; preds = %call.i.noexc
  %m_nnf.i.i = getelementptr inbounds i8, ptr %call.i2, i64 24
  store ptr null, ptr %m_nnf.i.i, align 8
  %call4 = invoke noundef ptr @_Z12using_paramsP6tacticRK10params_ref(ptr noundef nonnull %call.i2, ptr noundef nonnull align 8 dereferenceable(8) %new_p)
          to label %invoke.cont3 unwind label %lpad

invoke.cont3:                                     ; preds = %invoke.cont2
  call void @_ZN10params_refD1Ev(ptr noundef nonnull align 8 dereferenceable(8) %new_p) #12
  ret ptr %call4

lpad:                                             ; preds = %call.i.noexc, %invoke.cont1, %invoke.cont2, %invoke.cont, %entry
  %0 = landingpad { ptr, i32 }
          cleanup
  call void @_ZN10params_refD1Ev(ptr noundef nonnull align 8 dereferenceable(8) %new_p) #12
  resume { ptr, i32 } %0
}